   1               		.file	"roombatest.c"
   2               		.arch atmega128
   3               	__SREG__ = 0x3f
   4               	__SP_H__ = 0x3e
   5               	__SP_L__ = 0x3d
   6               	__tmp_reg__ = 0
   7               	__zero_reg__ = 1
   8               		.global __do_copy_data
   9               		.global __do_clear_bss
  10               		.section	.progmem.data,"a",@progbits
  13               	mod_header:
  14 0000 80        		.byte	-128
  15 0001 16        		.byte	22
  16 0002 01        		.byte	1
  17 0003 00        		.byte	0
  18 0004 00        		.byte	0
  19 0005 00        		.skip 1,0
  20 0006 01        		.byte	1
  21 0007 02        		.byte	2
  22 0008 8000      		.word	128
  23 000a 0000      		.skip 2,0
  24 000c 0000      		.word	pm(roombatest_msg_handler)
  25 000e 0000      		.word	pm(error_8)
  26 0010 6376 7630 		.ascii	"cvv0"
  27 0014 81        		.byte	-127
  28 0015 01        		.byte	1
  29 0016 0000      		.word	pm(error_8)
  30 0018 6376 7630 		.ascii	"cvv0"
  31 001c 81        		.byte	-127
  32 001d 02        		.byte	2
  33 001e 0000      		.word	pm(error_8)
  34 0020 6376 7630 		.ascii	"cvv0"
  35 0024 81        		.byte	-127
  36 0025 03        		.byte	3
  37 0026 0000      		.word	pm(error_8)
  38 0028 6376 7630 		.ascii	"cvv0"
  39 002c 81        		.byte	-127
  40 002d 04        		.byte	4
  41 002e 0000      		.word	pm(error_8)
  42 0030 6363 7631 		.ascii	"ccv1"
  43 0034 81        		.byte	-127
  44 0035 05        		.byte	5
  45 0036 0000      		.word	pm(error_8)
  46 0038 6363 7631 		.ascii	"ccv1"
  47 003c 81        		.byte	-127
  48 003d 06        		.byte	6
  49 003e 0000      		.word	pm(error_8)
  50 0040 6363 7631 		.ascii	"ccv1"
  51 0044 81        		.byte	-127
  52 0045 07        		.byte	7
  53 0046 0000      		.word	pm(error_8)
  54 0048 6363 7631 		.ascii	"ccv1"
  55 004c 81        		.byte	-127
  56 004d 08        		.byte	8
  57 004e 0000      		.word	pm(error_8)
  58 0050 6363 7631 		.ascii	"ccv1"
  59 0054 81        		.byte	-127
  60 0055 09        		.byte	9
  61 0056 0000      		.word	pm(error_8)
  62 0058 6363 7631 		.ascii	"ccv1"
  63 005c 81        		.byte	-127
  64 005d 0A        		.byte	10
  65               		.text
  67               	roombatest_msg_handler:
  68               	/* prologue: frame size=0 */
  69 0000 0F93      		push r16
  70 0002 1F93      		push r17
  71 0004 CF93      		push r28
  72 0006 DF93      		push r29
  73               	/* prologue end (size=4) */
  74 0008 EC01      		movw r28,r24
  75 000a 8B01      		movw r16,r22
  76 000c FB01      		movw r30,r22
  77 000e 8681      		ldd r24,Z+6
  78 0010 9927      		clr r25
  79 0012 8230      		cpi r24,2
  80 0014 9105      		cpc r25,__zero_reg__
  81 0016 29F1      		breq .L8
  82 0018 8330      		cpi r24,3
  83 001a 9105      		cpc r25,__zero_reg__
  84 001c 1CF4      		brge .L15
  85 001e 892B      		or r24,r25
  86 0020 21F0      		breq .L3
  87 0022 3BC0      		rjmp .L14
  88               	.L15:
  89 0024 0697      		sbiw r24,6
  90 0026 C9F0      		breq .L6
  91 0028 38C0      		rjmp .L14
  92               	.L3:
  93 002a EAEA      		ldi r30,lo8(426)
  94 002c F1E0      		ldi r31,hi8(426)
  95               	/* #APP */
  96 002e 2591      		lpm r18, Z+
  97 0030 3491      		lpm r19, Z
  98               		
  99               	/* #NOAPP */
 100 0032 88E0      		ldi r24,lo8(8)
 101 0034 F901      		movw r30,r18
 102 0036 0995      		icall
 103 0038 F801      		movw r30,r16
 104 003a 8081      		ld r24,Z
 105 003c 8C8B      		std Y+20,r24
 106 003e 1D8A      		std Y+21,__zero_reg__
 107 0040 8881      		ld r24,Y
 108 0042 9981      		ldd r25,Y+1
 109 0044 0E94 4600 		call 140
 110 0048 20E0      		ldi r18,lo8(0)
 111 004a 40E0      		ldi r20,lo8(4096)
 112 004c 50E1      		ldi r21,hi8(4096)
 113 004e 60E0      		ldi r22,hlo8(4096)
 114 0050 70E0      		ldi r23,hhi8(4096)
 115 0052 822F      		mov r24,r18
 116 0054 0E94 5000 		call 160
 117 0058 23C0      		rjmp .L2
 118               	.L6:
 119 005a 80E0      		ldi r24,lo8(0)
 120 005c 0E94 5400 		call 168
 121 0060 1FC0      		rjmp .L2
 122               	.L8:
 123 0062 FB01      		movw r30,r22
 124 0064 A085      		ldd r26,Z+8
 125 0066 B185      		ldd r27,Z+9
 126 0068 6C91      		ld r22,X
 127 006a 6623      		tst r22
 128 006c C9F4      		brne .L2
 129 006e 8D89      		ldd r24,Y+21
 130 0070 8823      		tst r24
 131 0072 89F4      		brne .L13
 132 0074 64EF      		ldi r22,lo8(500)
 133 0076 71E0      		ldi r23,hi8(500)
 134 0078 8A85      		ldd r24,Y+10
 135 007a 9B85      		ldd r25,Y+11
 136 007c 0E94 4600 		call 140
 137 0080 8D89      		ldd r24,Y+21
 138 0082 8F5F      		subi r24,lo8(-(1))
 139 0084 8D8B      		std Y+21,r24
 140 0086 EAEA      		ldi r30,lo8(426)
 141 0088 F1E0      		ldi r31,hi8(426)
 142               	/* #APP */
 143 008a 2591      		lpm r18, Z+
 144 008c 3491      		lpm r19, Z
 145               		
 146               	/* #NOAPP */
 147 008e 88E0      		ldi r24,lo8(8)
 148 0090 F901      		movw r30,r18
 149 0092 0995      		icall
 150 0094 05C0      		rjmp .L2
 151               	.L13:
 152 0096 6D8B      		std Y+21,r22
 153 0098 03C0      		rjmp .L2
 154               	.L14:
 155 009a 8AEE      		ldi r24,lo8(-22)
 156 009c 9FEF      		ldi r25,hi8(-22)
 157 009e 02C0      		rjmp .L1
 158               	.L2:
 159 00a0 80E0      		ldi r24,lo8(0)
 160 00a2 90E0      		ldi r25,hi8(0)
 161               	.L1:
 162               	/* epilogue: frame size=0 */
 163 00a4 DF91      		pop r29
 164 00a6 CF91      		pop r28
 165 00a8 1F91      		pop r17
 166 00aa 0F91      		pop r16
 167 00ac 0895      		ret
 168               	/* epilogue end (size=5) */
 169               	/* function roombatest_msg_handler size 96 (87) */
 172               	error_8:
 173               	/* prologue: frame size=0 */
 174               	/* prologue end (size=0) */
 175 00ae 8FEF      		ldi r24,lo8(-1)
 176 00b0 9FEF      		ldi r25,hi8(-1)
 177               	/* epilogue: frame size=0 */
 178 00b2 0895      		ret
 179               	/* epilogue end (size=1) */
 180               	/* function error_8 size 3 (2) */
 182               	/* File "roombatest.c": code   99 = 0x0063 (  89), prologues   4, epilogues   6 */
DEFINED SYMBOLS
                            *ABS*:00000000 roombatest.c
                            *ABS*:0000003f __SREG__
                            *ABS*:0000003e __SP_H__
                            *ABS*:0000003d __SP_L__
                            *ABS*:00000000 __tmp_reg__
                            *ABS*:00000001 __zero_reg__
     /tmp/ccfmgwYu.s:13     .progmem.data:00000000 mod_header
     /tmp/ccfmgwYu.s:67     .text:00000000 roombatest_msg_handler
     /tmp/ccfmgwYu.s:172    .text:000000ae error_8

UNDEFINED SYMBOLS
__do_copy_data
__do_clear_bss
