   1               		.file	"roombacomm.c"
   2               		.arch atmega128
   3               	__SREG__ = 0x3f
   4               	__SP_H__ = 0x3e
   5               	__SP_L__ = 0x3d
   6               	__tmp_reg__ = 0
   7               	__zero_reg__ = 1
   8               		.global __do_copy_data
   9               		.global __do_clear_bss
  10               		.section	.progmem.data,"a",@progbits
  13               	mod_header:
  14 0000 81        		.byte	-127
  15 0001 0E        		.byte	14
  16 0002 01        		.byte	1
  17 0003 00        		.byte	0
  18 0004 00        		.byte	0
  19 0005 00        		.skip 1,0
  20 0006 01        		.byte	1
  21 0007 02        		.byte	2
  22 0008 8100      		.word	129
  23 000a 0000      		.skip 2,0
  24 000c 0000      		.word	pm(roombacomm_MsgHandler)
  25 000e 0000      		.word	pm(roombacomm_Start)
  26 0010 6376 7630 		.ascii	"cvv0"
  27 0014 81        		.byte	-127
  28 0015 01        		.byte	1
  29 0016 0000      		.word	pm(roombacomm_Control)
  30 0018 6376 7630 		.ascii	"cvv0"
  31 001c 81        		.byte	-127
  32 001d 02        		.byte	2
  33 001e 0000      		.word	pm(roombacomm_Stop)
  34 0020 6376 7630 		.ascii	"cvv0"
  35 0024 81        		.byte	-127
  36 0025 03        		.byte	3
  37 0026 0000      		.word	pm(roombacomm_Reset)
  38 0028 6376 7630 		.ascii	"cvv0"
  39 002c 81        		.byte	-127
  40 002d 04        		.byte	4
  41 002e 0000      		.word	pm(roombacomm_GoStraightAt)
  42 0030 6363 7631 		.ascii	"ccv1"
  43 0034 81        		.byte	-127
  44 0035 05        		.byte	5
  45 0036 0000      		.word	pm(roombacomm_GoStraightFor)
  46 0038 6363 7631 		.ascii	"ccv1"
  47 003c 81        		.byte	-127
  48 003d 06        		.byte	6
  49 003e 0000      		.word	pm(roombacomm_SpinLeftAt)
  50 0040 6363 7631 		.ascii	"ccv1"
  51 0044 81        		.byte	-127
  52 0045 07        		.byte	7
  53 0046 0000      		.word	pm(roombacomm_SpinLeftFor)
  54 0048 6363 7631 		.ascii	"ccv1"
  55 004c 81        		.byte	-127
  56 004d 08        		.byte	8
  57 004e 0000      		.word	pm(roombacomm_SpinRightAt)
  58 0050 6363 7631 		.ascii	"ccv1"
  59 0054 81        		.byte	-127
  60 0055 09        		.byte	9
  61 0056 0000      		.word	pm(roombacomm_SpinRightFor)
  62 0058 6363 7631 		.ascii	"ccv1"
  63 005c 81        		.byte	-127
  64 005d 0A        		.byte	10
  65               		.text
  67               	roombacomm_MsgHandler:
  68               	/* prologue: frame size=0 */
  69 0000 CF93      		push r28
  70 0002 DF93      		push r29
  71               	/* prologue end (size=2) */
  72 0004 FC01      		movw r30,r24
  73 0006 EB01      		movw r28,r22
  74 0008 8E81      		ldd r24,Y+6
  75 000a 9927      		clr r25
  76 000c 8230      		cpi r24,2
  77 000e 9105      		cpc r25,__zero_reg__
  78 0010 C1F0      		breq .L6
  79 0012 8330      		cpi r24,3
  80 0014 9105      		cpc r25,__zero_reg__
  81 0016 1CF4      		brge .L9
  82 0018 892B      		or r24,r25
  83 001a 41F0      		breq .L3
  84 001c 1AC0      		rjmp .L8
  85               	.L9:
  86 001e 8630      		cpi r24,6
  87 0020 9105      		cpc r25,__zero_reg__
  88 0022 D1F0      		breq .L2
  89 0024 8234      		cpi r24,66
  90 0026 9105      		cpc r25,__zero_reg__
  91 0028 89F0      		breq .L7
  92 002a 13C0      		rjmp .L8
  93               	.L3:
  94 002c EAEA      		ldi r30,lo8(426)
  95 002e F1E0      		ldi r31,hi8(426)
  96               	/* #APP */
  97 0030 2591      		lpm r18, Z+
  98 0032 3491      		lpm r19, Z
  99               		
 100               	/* #NOAPP */
 101 0034 88E0      		ldi r24,lo8(8)
 102 0036 F901      		movw r30,r18
 103 0038 0995      		icall
 104 003a 8881      		ld r24,Y
 105 003c 0E94 0000 		call roombacomm_Init
 106 0040 0BC0      		rjmp .L2
 107               	.L6:
 108 0042 0484      		ldd __tmp_reg__,Z+12
 109 0044 F585      		ldd r31,Z+13
 110 0046 E02D      		mov r30,__tmp_reg__
 111 0048 0995      		icall
 112 004a 06C0      		rjmp .L2
 113               	.L7:
 114 004c 0E94 0000 		call roombacomm_ResetBuf
 115 0050 03C0      		rjmp .L2
 116               	.L8:
 117 0052 8AEE      		ldi r24,lo8(-22)
 118 0054 9FEF      		ldi r25,hi8(-22)
 119 0056 02C0      		rjmp .L1
 120               	.L2:
 121 0058 80E0      		ldi r24,lo8(0)
 122 005a 90E0      		ldi r25,hi8(0)
 123               	.L1:
 124               	/* epilogue: frame size=0 */
 125 005c DF91      		pop r29
 126 005e CF91      		pop r28
 127 0060 0895      		ret
 128               	/* epilogue end (size=3) */
 129               	/* function roombacomm_MsgHandler size 53 (48) */
 132               	roombacomm_Init:
 133               	/* prologue: frame size=0 */
 134 0062 CF93      		push r28
 135               	/* prologue end (size=1) */
 136 0064 C82F      		mov r28,r24
 137 0066 0E94 6800 		call 208
 138 006a FC01      		movw r30,r24
 139 006c DC01      		movw r26,r24
 140 006e 1496      		adiw r26,4
 141 0070 84E0      		ldi r24,lo8(4)
 142 0072 90E0      		ldi r25,hi8(4)
 143               	.L15:
 144 0074 1D92      		st X+,__zero_reg__
 145 0076 0197      		sbiw r24,1
 146 0078 97FF      		sbrs r25,7
 147 007a FCCF      		rjmp .L15
 148 007c 1186      		std Z+9,__zero_reg__
 149 007e C283      		std Z+2,r28
 150 0080 80E0      		ldi r24,lo8(256)
 151 0082 91E0      		ldi r25,hi8(256)
 152 0084 8083      		st Z,r24
 153 0086 9183      		std Z+1,r25
 154 0088 EEE9      		ldi r30,lo8(414)
 155 008a F1E0      		ldi r31,hi8(414)
 156               	/* #APP */
 157 008c 2591      		lpm r18, Z+
 158 008e 3491      		lpm r19, Z
 159               		
 160               	/* #NOAPP */
 161 0090 60E4      		ldi r22,lo8(64)
 162 0092 8C2F      		mov r24,r28
 163 0094 F901      		movw r30,r18
 164 0096 0995      		icall
 165 0098 9927      		clr r25
 166 009a 87FD      		sbrc r24,7
 167 009c 9095      		com r25
 168               	/* epilogue: frame size=0 */
 169 009e CF91      		pop r28
 170 00a0 0895      		ret
 171               	/* epilogue end (size=2) */
 172               	/* function roombacomm_Init size 36 (33) */
 175               	roombacomm_Start:
 176               	/* prologue: frame size=0 */
 177               	/* prologue end (size=0) */
 178 00a2 0E94 6800 		call 208
 179 00a6 FC01      		movw r30,r24
 180 00a8 8185      		ldd r24,Z+9
 181 00aa 8823      		tst r24
 182 00ac 51F0      		breq .L21
 183 00ae EAEA      		ldi r30,lo8(426)
 184 00b0 F1E0      		ldi r31,hi8(426)
 185               	/* #APP */
 186 00b2 2591      		lpm r18, Z+
 187 00b4 3491      		lpm r19, Z
 188               		
 189               	/* #NOAPP */
 190 00b6 87E0      		ldi r24,lo8(7)
 191 00b8 F901      		movw r30,r18
 192 00ba 0995      		icall
 193 00bc 80EF      		ldi r24,lo8(-16)
 194 00be 9FEF      		ldi r25,hi8(-16)
 195 00c0 0895      		ret
 196               	.L21:
 197 00c2 80E8      		ldi r24,lo8(-128)
 198 00c4 8483      		std Z+4,r24
 199 00c6 81E0      		ldi r24,lo8(1)
 200 00c8 8187      		std Z+9,r24
 201 00ca 0E94 0000 		call roombacomm_Send
 202 00ce 9927      		clr r25
 203 00d0 87FD      		sbrc r24,7
 204 00d2 9095      		com r25
 205 00d4 0895      		ret
 206               	/* epilogue: frame size=0 */
 207               	/* epilogue: noreturn */
 208               	/* epilogue end (size=0) */
 209               	/* function roombacomm_Start size 30 (30) */
 212               	roombacomm_Control:
 213               	/* prologue: frame size=0 */
 214               	/* prologue end (size=0) */
 215 00d6 0E94 6800 		call 208
 216 00da FC01      		movw r30,r24
 217 00dc 8185      		ldd r24,Z+9
 218 00de 8823      		tst r24
 219 00e0 51F0      		breq .L25
 220 00e2 EAEA      		ldi r30,lo8(426)
 221 00e4 F1E0      		ldi r31,hi8(426)
 222               	/* #APP */
 223 00e6 2591      		lpm r18, Z+
 224 00e8 3491      		lpm r19, Z
 225               		
 226               	/* #NOAPP */
 227 00ea 87E0      		ldi r24,lo8(7)
 228 00ec F901      		movw r30,r18
 229 00ee 0995      		icall
 230 00f0 80EF      		ldi r24,lo8(-16)
 231 00f2 9FEF      		ldi r25,hi8(-16)
 232 00f4 0895      		ret
 233               	.L25:
 234 00f6 82E8      		ldi r24,lo8(-126)
 235 00f8 8483      		std Z+4,r24
 236 00fa 81E0      		ldi r24,lo8(1)
 237 00fc 8187      		std Z+9,r24
 238 00fe 0E94 0000 		call roombacomm_Send
 239 0102 9927      		clr r25
 240 0104 87FD      		sbrc r24,7
 241 0106 9095      		com r25
 242 0108 0895      		ret
 243               	/* epilogue: frame size=0 */
 244               	/* epilogue: noreturn */
 245               	/* epilogue end (size=0) */
 246               	/* function roombacomm_Control size 30 (30) */
 249               	roombacomm_Stop:
 250               	/* prologue: frame size=0 */
 251               	/* prologue end (size=0) */
 252 010a 0E94 6800 		call 208
 253 010e 60E0      		ldi r22,lo8(0)
 254 0110 70E0      		ldi r23,hi8(0)
 255 0112 CB01      		movw r24,r22
 256 0114 0E94 0000 		call roombacomm_Drive
 257 0118 9927      		clr r25
 258 011a 87FD      		sbrc r24,7
 259 011c 9095      		com r25
 260               	/* epilogue: frame size=0 */
 261 011e 0895      		ret
 262               	/* epilogue end (size=1) */
 263               	/* function roombacomm_Stop size 11 (10) */
 266               	roombacomm_Reset:
 267               	/* prologue: frame size=0 */
 268               	/* prologue end (size=0) */
 269 0120 0E94 6800 		call 208
 270 0124 80E0      		ldi r24,lo8(0)
 271 0126 90E0      		ldi r25,hi8(0)
 272 0128 0E94 0000 		call roombacomm_Stop
 273 012c 8823      		tst r24
 274 012e 31F4      		brne .L33
 275 0130 80E0      		ldi r24,lo8(0)
 276 0132 90E0      		ldi r25,hi8(0)
 277 0134 0E94 0000 		call roombacomm_Start
 278 0138 8823      		tst r24
 279 013a 21F0      		breq .L32
 280               	.L33:
 281 013c 9927      		clr r25
 282 013e 87FD      		sbrc r24,7
 283 0140 9095      		com r25
 284 0142 0895      		ret
 285               	.L32:
 286 0144 80E0      		ldi r24,lo8(0)
 287 0146 90E0      		ldi r25,hi8(0)
 288 0148 0E94 0000 		call roombacomm_Control
 289 014c 9927      		clr r25
 290 014e 87FD      		sbrc r24,7
 291 0150 9095      		com r25
 292 0152 0895      		ret
 293               	/* epilogue: frame size=0 */
 294               	/* epilogue: noreturn */
 295               	/* epilogue end (size=0) */
 296               	/* function roombacomm_Reset size 26 (26) */
 299               	roombacomm_Drive:
 300               	/* prologue: frame size=0 */
 301 0154 0F93      		push r16
 302 0156 1F93      		push r17
 303 0158 CF93      		push r28
 304 015a DF93      		push r29
 305               	/* prologue end (size=4) */
 306 015c EC01      		movw r28,r24
 307 015e 8B01      		movw r16,r22
 308 0160 0E94 6800 		call 208
 309 0164 FC01      		movw r30,r24
 310 0166 8185      		ldd r24,Z+9
 311 0168 8823      		tst r24
 312 016a 51F0      		breq .L36
 313 016c EAEA      		ldi r30,lo8(426)
 314 016e F1E0      		ldi r31,hi8(426)
 315               	/* #APP */
 316 0170 2591      		lpm r18, Z+
 317 0172 3491      		lpm r19, Z
 318               		
 319               	/* #NOAPP */
 320 0174 87E0      		ldi r24,lo8(7)
 321 0176 F901      		movw r30,r18
 322 0178 0995      		icall
 323 017a 80EF      		ldi r24,lo8(-16)
 324 017c 9FEF      		ldi r25,hi8(-16)
 325 017e 15C0      		rjmp .L34
 326               	.L36:
 327 0180 89E8      		ldi r24,lo8(-119)
 328 0182 8483      		std Z+4,r24
 329 0184 8D2F      		mov r24,r29
 330 0186 9927      		clr r25
 331 0188 87FD      		sbrc r24,7
 332 018a 9A95      		dec r25
 333 018c 8583      		std Z+5,r24
 334 018e C683      		std Z+6,r28
 335 0190 812F      		mov r24,r17
 336 0192 9927      		clr r25
 337 0194 87FD      		sbrc r24,7
 338 0196 9A95      		dec r25
 339 0198 8783      		std Z+7,r24
 340 019a 0087      		std Z+8,r16
 341 019c 85E0      		ldi r24,lo8(5)
 342 019e 8187      		std Z+9,r24
 343 01a0 0E94 0000 		call roombacomm_Send
 344 01a4 9927      		clr r25
 345 01a6 87FD      		sbrc r24,7
 346 01a8 9095      		com r25
 347               	.L34:
 348               	/* epilogue: frame size=0 */
 349 01aa DF91      		pop r29
 350 01ac CF91      		pop r28
 351 01ae 1F91      		pop r17
 352 01b0 0F91      		pop r16
 353 01b2 0895      		ret
 354               	/* epilogue end (size=5) */
 355               	/* function roombacomm_Drive size 52 (43) */
 358               	roombacomm_Send:
 359               	/* prologue: frame size=0 */
 360 01b4 CF93      		push r28
 361 01b6 DF93      		push r29
 362               	/* prologue end (size=2) */
 363 01b8 0E94 6800 		call 208
 364 01bc EC01      		movw r28,r24
 365 01be EEE9      		ldi r30,lo8(414)
 366 01c0 F1E0      		ldi r31,hi8(414)
 367               	/* #APP */
 368 01c2 2591      		lpm r18, Z+
 369 01c4 3491      		lpm r19, Z
 370               		
 371               	/* #NOAPP */
 372 01c6 60E4      		ldi r22,lo8(64)
 373 01c8 8A81      		ldd r24,Y+2
 374 01ca F901      		movw r30,r18
 375 01cc 0995      		icall
 376 01ce 9927      		clr r25
 377 01d0 87FD      		sbrc r24,7
 378 01d2 9095      		com r25
 379 01d4 8823      		tst r24
 380 01d6 21F0      		breq .L40
 381 01d8 9927      		clr r25
 382 01da 87FD      		sbrc r24,7
 383 01dc 9095      		com r25
 384 01de 0FC0      		rjmp .L38
 385               	.L40:
 386 01e0 9985      		ldd r25,Y+9
 387 01e2 8A81      		ldd r24,Y+2
 388 01e4 E2EA      		ldi r30,lo8(418)
 389 01e6 F1E0      		ldi r31,hi8(418)
 390               	/* #APP */
 391 01e8 2591      		lpm r18, Z+
 392 01ea 3491      		lpm r19, Z
 393               		
 394               	/* #NOAPP */
 395 01ec 482F      		mov r20,r24
 396 01ee 692F      		mov r22,r25
 397 01f0 CE01      		movw r24,r28
 398 01f2 0496      		adiw r24,4
 399 01f4 F901      		movw r30,r18
 400 01f6 0995      		icall
 401 01f8 9927      		clr r25
 402 01fa 87FD      		sbrc r24,7
 403 01fc 9095      		com r25
 404               	.L38:
 405               	/* epilogue: frame size=0 */
 406 01fe DF91      		pop r29
 407 0200 CF91      		pop r28
 408 0202 0895      		ret
 409               	/* epilogue end (size=3) */
 410               	/* function roombacomm_Send size 48 (43) */
 413               	roombacomm_ResetBuf:
 414               	/* prologue: frame size=0 */
 415               	/* prologue end (size=0) */
 416 0204 0E94 6800 		call 208
 417 0208 FC01      		movw r30,r24
 418 020a 1186      		std Z+9,__zero_reg__
 419               	/* epilogue: frame size=0 */
 420 020c 0895      		ret
 421               	/* epilogue end (size=1) */
 422               	/* function roombacomm_ResetBuf size 5 (4) */
 425               	roombacomm_GoStraightAt:
 426               	/* prologue: frame size=0 */
 427 020e CF93      		push r28
 428 0210 DF93      		push r29
 429               	/* prologue end (size=2) */
 430 0212 EB01      		movw r28,r22
 431 0214 0E94 6800 		call 208
 432 0218 FC01      		movw r30,r24
 433 021a CE01      		movw r24,r28
 434 021c 21E0      		ldi r18,hi8(501)
 435 021e C53F      		cpi r28,lo8(501)
 436 0220 D207      		cpc r29,r18
 437 0222 14F0      		brlt .L47
 438 0224 84EF      		ldi r24,lo8(500)
 439 0226 91E0      		ldi r25,hi8(500)
 440               	.L47:
 441 0228 8083      		st Z,r24
 442 022a 9183      		std Z+1,r25
 443 022c CE01      		movw r24,r28
 444 022e CC50      		subi r28,lo8(-500)
 445 0230 DE4F      		sbci r29,hi8(-500)
 446 0232 14F4      		brge .L48
 447 0234 8CE0      		ldi r24,lo8(-500)
 448 0236 9EEF      		ldi r25,hi8(-500)
 449               	.L48:
 450 0238 8083      		st Z,r24
 451 023a 9183      		std Z+1,r25
 452 023c 60E0      		ldi r22,lo8(-32768)
 453 023e 70E8      		ldi r23,hi8(-32768)
 454 0240 0E94 0000 		call roombacomm_Drive
 455 0244 9927      		clr r25
 456 0246 87FD      		sbrc r24,7
 457 0248 9095      		com r25
 458               	/* epilogue: frame size=0 */
 459 024a DF91      		pop r29
 460 024c CF91      		pop r28
 461 024e 0895      		ret
 462               	/* epilogue end (size=3) */
 463               	/* function roombacomm_GoStraightAt size 34 (29) */
 466               	roombacomm_GoStraightFor:
 467               	/* prologue: frame size=0 */
 468 0250 0F93      		push r16
 469 0252 1F93      		push r17
 470               	/* prologue end (size=2) */
 471 0254 8B01      		movw r16,r22
 472 0256 0E94 6800 		call 208
 473 025a FC01      		movw r30,r24
 474 025c 0387      		std Z+11,r16
 475 025e 80E0      		ldi r24,lo8(0)
 476 0260 90E0      		ldi r25,hi8(0)
 477 0262 0E94 0000 		call roombacomm_GoStraightSegment
 478 0266 9927      		clr r25
 479 0268 87FD      		sbrc r24,7
 480 026a 9095      		com r25
 481               	/* epilogue: frame size=0 */
 482 026c 1F91      		pop r17
 483 026e 0F91      		pop r16
 484 0270 0895      		ret
 485               	/* epilogue end (size=3) */
 486               	/* function roombacomm_GoStraightFor size 17 (12) */
 489               	roombacomm_GoStraightSegment:
 490               	/* prologue: frame size=0 */
 491 0272 CF93      		push r28
 492 0274 DF93      		push r29
 493               	/* prologue end (size=2) */
 494 0276 0E94 6800 		call 208
 495 027a EC01      		movw r28,r24
 496 027c 2A85      		ldd r18,Y+10
 497 027e 80E0      		ldi r24,lo8(-32768)
 498 0280 90E8      		ldi r25,hi8(-32768)
 499 0282 821B      		sub r24,r18
 500 0284 9109      		sbc r25,__zero_reg__
 501 0286 BC01      		movw r22,r24
 502 0288 8881      		ld r24,Y
 503 028a 9981      		ldd r25,Y+1
 504 028c 0E94 0000 		call roombacomm_Drive
 505 0290 382F      		mov r19,r24
 506 0292 8823      		tst r24
 507 0294 61F5      		brne .L59
 508 0296 9A85      		ldd r25,Y+10
 509 0298 81E0      		ldi r24,lo8(1)
 510 029a 891B      		sub r24,r25
 511 029c 8A87      		std Y+10,r24
 512 029e 2B85      		ldd r18,Y+11
 513 02a0 6881      		ld r22,Y
 514 02a2 7981      		ldd r23,Y+1
 515 02a4 2A31      		cpi r18,lo8(26)
 516 02a6 78F0      		brlo .L54
 517 02a8 80E0      		ldi r24,lo8(25600)
 518 02aa 94E6      		ldi r25,hi8(25600)
 519 02ac 0E94 0000 		call __divmodhi4
 520 02b0 CB01      		movw r24,r22
 521 02b2 77FF      		sbrs r23,7
 522 02b4 03C0      		rjmp .L55
 523 02b6 9095      		com r25
 524 02b8 8195      		neg r24
 525 02ba 9F4F      		sbci r25,lo8(-1)
 526               	.L55:
 527 02bc 2951      		subi r18,lo8(-(-25))
 528 02be 2B87      		std Y+11,r18
 529 02c0 60E0      		ldi r22,lo8(pm(roombacomm_GoStraightSegment))
 530 02c2 70E0      		ldi r23,hi8(pm(roombacomm_GoStraightSegment))
 531 02c4 11C0      		rjmp .L58
 532               	.L54:
 533 02c6 822F      		mov r24,r18
 534 02c8 9927      		clr r25
 535 02ca 982F      		mov r25,r24
 536 02cc 8827      		clr r24
 537 02ce 990F      		lsl r25
 538 02d0 990F      		lsl r25
 539 02d2 0E94 0000 		call __divmodhi4
 540 02d6 CB01      		movw r24,r22
 541 02d8 77FF      		sbrs r23,7
 542 02da 03C0      		rjmp .L57
 543 02dc 9095      		com r25
 544 02de 8195      		neg r24
 545 02e0 9F4F      		sbci r25,lo8(-1)
 546               	.L57:
 547 02e2 3B87      		std Y+11,r19
 548 02e4 60E0      		ldi r22,lo8(pm(roombacomm_Stop))
 549 02e6 70E0      		ldi r23,hi8(pm(roombacomm_Stop))
 550               	.L58:
 551 02e8 0E94 0000 		call roombacomm_Pause
 552 02ec 382F      		mov r19,r24
 553               	.L59:
 554 02ee 832F      		mov r24,r19
 555 02f0 9927      		clr r25
 556 02f2 87FD      		sbrc r24,7
 557 02f4 9095      		com r25
 558               	/* epilogue: frame size=0 */
 559 02f6 DF91      		pop r29
 560 02f8 CF91      		pop r28
 561 02fa 0895      		ret
 562               	/* epilogue end (size=3) */
 563               	/* function roombacomm_GoStraightSegment size 69 (64) */
 566               	roombacomm_SpinRightAt:
 567               	/* prologue: frame size=0 */
 568 02fc CF93      		push r28
 569 02fe DF93      		push r29
 570               	/* prologue end (size=2) */
 571 0300 EB01      		movw r28,r22
 572 0302 0E94 6800 		call 208
 573 0306 FC01      		movw r30,r24
 574 0308 CE01      		movw r24,r28
 575 030a 21E0      		ldi r18,hi8(501)
 576 030c C53F      		cpi r28,lo8(501)
 577 030e D207      		cpc r29,r18
 578 0310 14F0      		brlt .L62
 579 0312 84EF      		ldi r24,lo8(500)
 580 0314 91E0      		ldi r25,hi8(500)
 581               	.L62:
 582 0316 8083      		st Z,r24
 583 0318 9183      		std Z+1,r25
 584 031a CE01      		movw r24,r28
 585 031c CC50      		subi r28,lo8(-500)
 586 031e DE4F      		sbci r29,hi8(-500)
 587 0320 14F4      		brge .L63
 588 0322 8CE0      		ldi r24,lo8(-500)
 589 0324 9EEF      		ldi r25,hi8(-500)
 590               	.L63:
 591 0326 8083      		st Z,r24
 592 0328 9183      		std Z+1,r25
 593 032a 6FEF      		ldi r22,lo8(-1)
 594 032c 7FEF      		ldi r23,hi8(-1)
 595 032e 0E94 0000 		call roombacomm_Drive
 596 0332 9927      		clr r25
 597 0334 87FD      		sbrc r24,7
 598 0336 9095      		com r25
 599               	/* epilogue: frame size=0 */
 600 0338 DF91      		pop r29
 601 033a CF91      		pop r28
 602 033c 0895      		ret
 603               	/* epilogue end (size=3) */
 604               	/* function roombacomm_SpinRightAt size 34 (29) */
 607               	roombacomm_SpinLeftAt:
 608               	/* prologue: frame size=0 */
 609 033e CF93      		push r28
 610 0340 DF93      		push r29
 611               	/* prologue end (size=2) */
 612 0342 EB01      		movw r28,r22
 613 0344 0E94 6800 		call 208
 614 0348 FC01      		movw r30,r24
 615 034a CE01      		movw r24,r28
 616 034c 21E0      		ldi r18,hi8(501)
 617 034e C53F      		cpi r28,lo8(501)
 618 0350 D207      		cpc r29,r18
 619 0352 14F0      		brlt .L66
 620 0354 84EF      		ldi r24,lo8(500)
 621 0356 91E0      		ldi r25,hi8(500)
 622               	.L66:
 623 0358 8083      		st Z,r24
 624 035a 9183      		std Z+1,r25
 625 035c CE01      		movw r24,r28
 626 035e CC50      		subi r28,lo8(-500)
 627 0360 DE4F      		sbci r29,hi8(-500)
 628 0362 14F4      		brge .L67
 629 0364 8CE0      		ldi r24,lo8(-500)
 630 0366 9EEF      		ldi r25,hi8(-500)
 631               	.L67:
 632 0368 8083      		st Z,r24
 633 036a 9183      		std Z+1,r25
 634 036c 61E0      		ldi r22,lo8(1)
 635 036e 70E0      		ldi r23,hi8(1)
 636 0370 0E94 0000 		call roombacomm_Drive
 637 0374 9927      		clr r25
 638 0376 87FD      		sbrc r24,7
 639 0378 9095      		com r25
 640               	/* epilogue: frame size=0 */
 641 037a DF91      		pop r29
 642 037c CF91      		pop r28
 643 037e 0895      		ret
 644               	/* epilogue end (size=3) */
 645               	/* function roombacomm_SpinLeftAt size 34 (29) */
 648               	roombacomm_SpinLeftFor:
 649               	/* prologue: frame size=0 */
 650 0380 0F93      		push r16
 651 0382 1F93      		push r17
 652 0384 CF93      		push r28
 653 0386 DF93      		push r29
 654               	/* prologue end (size=4) */
 655 0388 8B01      		movw r16,r22
 656 038a 0E94 6800 		call 208
 657 038e EC01      		movw r28,r24
 658 0390 6881      		ld r22,Y
 659 0392 7981      		ldd r23,Y+1
 660 0394 80E0      		ldi r24,lo8(0)
 661 0396 90E0      		ldi r25,hi8(0)
 662 0398 0E94 0000 		call roombacomm_SpinLeftAt
 663 039c 8823      		tst r24
 664 039e F1F4      		brne .L73
 665 03a0 17FF      		sbrs r17,7
 666 03a2 03C0      		rjmp .L71
 667 03a4 80E0      		ldi r24,lo8(0)
 668 03a6 90E0      		ldi r25,hi8(0)
 669 03a8 1CC0      		rjmp .L68
 670               	.L71:
 671 03aa 2881      		ld r18,Y
 672 03ac 3981      		ldd r19,Y+1
 673 03ae 80E0      		ldi r24,lo8(18432)
 674 03b0 98E4      		ldi r25,hi8(18432)
 675 03b2 089F      		mul r16,r24
 676 03b4 A001      		movw r20,r0
 677 03b6 099F      		mul r16,r25
 678 03b8 500D      		add r21,r0
 679 03ba 189F      		mul r17,r24
 680 03bc 500D      		add r21,r0
 681 03be 1124      		clr r1
 682 03c0 CA01      		movw r24,r20
 683 03c2 B901      		movw r22,r18
 684 03c4 0E94 0000 		call __divmodhi4
 685 03c8 CB01      		movw r24,r22
 686 03ca 77FF      		sbrs r23,7
 687 03cc 03C0      		rjmp .L72
 688 03ce 9095      		com r25
 689 03d0 8195      		neg r24
 690 03d2 9F4F      		sbci r25,lo8(-1)
 691               	.L72:
 692 03d4 60E0      		ldi r22,lo8(pm(roombacomm_Stop))
 693 03d6 70E0      		ldi r23,hi8(pm(roombacomm_Stop))
 694 03d8 0E94 0000 		call roombacomm_Pause
 695               	.L73:
 696 03dc 9927      		clr r25
 697 03de 87FD      		sbrc r24,7
 698 03e0 9095      		com r25
 699               	.L68:
 700               	/* epilogue: frame size=0 */
 701 03e2 DF91      		pop r29
 702 03e4 CF91      		pop r28
 703 03e6 1F91      		pop r17
 704 03e8 0F91      		pop r16
 705 03ea 0895      		ret
 706               	/* epilogue end (size=5) */
 707               	/* function roombacomm_SpinLeftFor size 54 (45) */
 710               	roombacomm_SpinRightFor:
 711               	/* prologue: frame size=0 */
 712 03ec 0F93      		push r16
 713 03ee 1F93      		push r17
 714 03f0 CF93      		push r28
 715 03f2 DF93      		push r29
 716               	/* prologue end (size=4) */
 717 03f4 8B01      		movw r16,r22
 718 03f6 0E94 6800 		call 208
 719 03fa EC01      		movw r28,r24
 720 03fc 6881      		ld r22,Y
 721 03fe 7981      		ldd r23,Y+1
 722 0400 80E0      		ldi r24,lo8(0)
 723 0402 90E0      		ldi r25,hi8(0)
 724 0404 0E94 0000 		call roombacomm_SpinRightAt
 725 0408 8823      		tst r24
 726 040a F1F4      		brne .L79
 727 040c 17FF      		sbrs r17,7
 728 040e 03C0      		rjmp .L77
 729 0410 80E0      		ldi r24,lo8(0)
 730 0412 90E0      		ldi r25,hi8(0)
 731 0414 1CC0      		rjmp .L74
 732               	.L77:
 733 0416 2881      		ld r18,Y
 734 0418 3981      		ldd r19,Y+1
 735 041a 80E0      		ldi r24,lo8(18432)
 736 041c 98E4      		ldi r25,hi8(18432)
 737 041e 089F      		mul r16,r24
 738 0420 A001      		movw r20,r0
 739 0422 099F      		mul r16,r25
 740 0424 500D      		add r21,r0
 741 0426 189F      		mul r17,r24
 742 0428 500D      		add r21,r0
 743 042a 1124      		clr r1
 744 042c CA01      		movw r24,r20
 745 042e B901      		movw r22,r18
 746 0430 0E94 0000 		call __divmodhi4
 747 0434 CB01      		movw r24,r22
 748 0436 77FF      		sbrs r23,7
 749 0438 03C0      		rjmp .L78
 750 043a 9095      		com r25
 751 043c 8195      		neg r24
 752 043e 9F4F      		sbci r25,lo8(-1)
 753               	.L78:
 754 0440 60E0      		ldi r22,lo8(pm(roombacomm_Stop))
 755 0442 70E0      		ldi r23,hi8(pm(roombacomm_Stop))
 756 0444 0E94 0000 		call roombacomm_Pause
 757               	.L79:
 758 0448 9927      		clr r25
 759 044a 87FD      		sbrc r24,7
 760 044c 9095      		com r25
 761               	.L74:
 762               	/* epilogue: frame size=0 */
 763 044e DF91      		pop r29
 764 0450 CF91      		pop r28
 765 0452 1F91      		pop r17
 766 0454 0F91      		pop r16
 767 0456 0895      		ret
 768               	/* epilogue end (size=5) */
 769               	/* function roombacomm_SpinRightFor size 54 (45) */
 772               	roombacomm_Pause:
 773               	/* prologue: frame size=0 */
 774 0458 EF92      		push r14
 775 045a FF92      		push r15
 776 045c 0F93      		push r16
 777 045e 1F93      		push r17
 778               	/* prologue end (size=4) */
 779 0460 7C01      		movw r14,r24
 780 0462 8B01      		movw r16,r22
 781 0464 0E94 6800 		call 208
 782 0468 FC01      		movw r30,r24
 783 046a 0487      		std Z+12,r16
 784 046c 1587      		std Z+13,r17
 785 046e C701      		movw r24,r14
 786 0470 AA27      		clr r26
 787 0472 97FD      		sbrc r25,7
 788 0474 A095      		com r26
 789 0476 BA2F      		mov r27,r26
 790 0478 21E0      		ldi r18,lo8(1)
 791 047a AC01      		movw r20,r24
 792 047c BD01      		movw r22,r26
 793 047e 80E0      		ldi r24,lo8(0)
 794 0480 0E94 5000 		call 160
 795 0484 9927      		clr r25
 796 0486 87FD      		sbrc r24,7
 797 0488 9095      		com r25
 798               	/* epilogue: frame size=0 */
 799 048a 1F91      		pop r17
 800 048c 0F91      		pop r16
 801 048e FF90      		pop r15
 802 0490 EF90      		pop r14
 803 0492 0895      		ret
 804               	/* epilogue end (size=5) */
 805               	/* function roombacomm_Pause size 30 (21) */
 807               	/* File "roombacomm.c": code  617 = 0x0269 ( 541), prologues  31, epilogues  45 */
DEFINED SYMBOLS
                            *ABS*:00000000 roombacomm.c
                            *ABS*:0000003f __SREG__
                            *ABS*:0000003e __SP_H__
                            *ABS*:0000003d __SP_L__
                            *ABS*:00000000 __tmp_reg__
                            *ABS*:00000001 __zero_reg__
     /tmp/ccq80daR.s:13     .progmem.data:00000000 mod_header
     /tmp/ccq80daR.s:67     .text:00000000 roombacomm_MsgHandler
     /tmp/ccq80daR.s:175    .text:000000a2 roombacomm_Start
     /tmp/ccq80daR.s:212    .text:000000d6 roombacomm_Control
     /tmp/ccq80daR.s:249    .text:0000010a roombacomm_Stop
     /tmp/ccq80daR.s:266    .text:00000120 roombacomm_Reset
     /tmp/ccq80daR.s:425    .text:0000020e roombacomm_GoStraightAt
     /tmp/ccq80daR.s:466    .text:00000250 roombacomm_GoStraightFor
     /tmp/ccq80daR.s:607    .text:0000033e roombacomm_SpinLeftAt
     /tmp/ccq80daR.s:648    .text:00000380 roombacomm_SpinLeftFor
     /tmp/ccq80daR.s:566    .text:000002fc roombacomm_SpinRightAt
     /tmp/ccq80daR.s:710    .text:000003ec roombacomm_SpinRightFor
     /tmp/ccq80daR.s:132    .text:00000062 roombacomm_Init
     /tmp/ccq80daR.s:413    .text:00000204 roombacomm_ResetBuf
     /tmp/ccq80daR.s:358    .text:000001b4 roombacomm_Send
     /tmp/ccq80daR.s:299    .text:00000154 roombacomm_Drive
     /tmp/ccq80daR.s:489    .text:00000272 roombacomm_GoStraightSegment
     /tmp/ccq80daR.s:772    .text:00000458 roombacomm_Pause

UNDEFINED SYMBOLS
__do_copy_data
__do_clear_bss
__divmodhi4
